(dp0
Vengine
p1
Vpdflatex
p2
sVpackages
p3
c__builtin__
set
p4
((lp5
Vmathtools
p6
aVmakecell
p7
aValgorithm
p8
aVfancyhdr
p9
aVamsmath
p10
aVinputenc
p11
aVfloat
p12
aVgeometry
p13
aValgpseudocode
p14
aVmultirow
p15
aVsubcaption
p16
aVfontenc
p17
aVamsfonts
p18
aVarray
p19
aVcaption
p20
aVgraphicx
p21
aVsubfig
p22
aVamssymb
p23
atp24
Rp25
sVfiles_with_guttermarks
p26
g4
((lp27
S'MVA_HW4_MCMC.tex'
p28
atp29
Rp30
sVsynctex
p31
I01
s.